target datalayout = "e-m:e-p270:32:32-p271:32:32-p272:64:64-i64:64-i128:128-f80:128-n8:16:32:64-S128"
target triple = "x86_64-pc-linux-gnu"

%struct.doall_enc_ciphers = type { ptr, i32 }
%struct.obj_name_st = type { i32, i32, ptr, ptr }

@.str.91 = private unnamed_addr constant [2 x i8] c"\0A\00", align 1
@.str.129 = private unnamed_addr constant [7 x i8] c"-%-25s\00", align 1
@.str.130 = private unnamed_addr constant [2 x i8] c" \00", align 1

; Function Attrs: nounwind uwtable
define internal void @show_ciphers(ptr noundef %0, ptr noundef %1) #0 {
  %3 = alloca ptr, align 8
  %4 = alloca ptr, align 8
  %5 = alloca ptr, align 8
  %6 = alloca ptr, align 8
  %7 = alloca i32, align 4
  store ptr %0, ptr %3, align 8, !tbaa !44
  store ptr %1, ptr %4, align 8, !tbaa !46
  call void @llvm.lifetime.start.p0(i64 8, ptr %5) #8
  %8 = load ptr, ptr %4, align 8, !tbaa !46
  store ptr %8, ptr %5, align 8, !tbaa !47
  call void @llvm.lifetime.start.p0(i64 8, ptr %6) #8
  %9 = call ptr @__ctype_b_loc() #10
  %10 = load ptr, ptr %9, align 8, !tbaa !49
  %11 = load ptr, ptr %3, align 8, !tbaa !44
  %12 = getelementptr inbounds nuw %struct.obj_name_st, ptr %11, i32 0, i32 2
  %13 = load ptr, ptr %12, align 8, !tbaa !51
  %14 = load i8, ptr %13, align 1, !tbaa !32
  %15 = zext i8 %14 to i32
  %16 = sext i32 %15 to i64
  %17 = getelementptr inbounds i16, ptr %10, i64 %16
  %18 = load i16, ptr %17, align 2, !tbaa !53
  %19 = zext i16 %18 to i32
  %20 = and i32 %19, 512
  %21 = icmp ne i32 %20, 0
  br i1 %21, label %23, label %22

22:                                               ; preds = %2
  store i32 1, ptr %7, align 4
  br label %66

23:                                               ; preds = %2
  %24 = load ptr, ptr %3, align 8, !tbaa !44
  %25 = getelementptr inbounds nuw %struct.obj_name_st, ptr %24, i32 0, i32 2
  %26 = load ptr, ptr %25, align 8, !tbaa !51
  %27 = call ptr @EVP_get_cipherbyname(ptr noundef %26)
  store ptr %27, ptr %6, align 8, !tbaa !17
  %28 = load ptr, ptr %6, align 8, !tbaa !17
  %29 = icmp eq ptr %28, null
  br i1 %29, label %39, label %30

30:                                               ; preds = %23
  %31 = load ptr, ptr %6, align 8, !tbaa !17
  %32 = call i64 @EVP_CIPHER_get_flags(ptr noundef %31)
  %33 = and i64 %32, 2097152
  %34 = icmp ne i64 %33, 0
  br i1 %34, label %39, label %35

35:                                               ; preds = %30
  %36 = load ptr, ptr %6, align 8, !tbaa !17
  %37 = call i32 @EVP_CIPHER_get_mode(ptr noundef %36)
  %38 = icmp eq i32 %37, 65537
  br i1 %38, label %39, label %40

39:                                               ; preds = %35, %30, %23
  store i32 1, ptr %7, align 4
  br label %66

40:                                               ; preds = %35
  %41 = load ptr, ptr %5, align 8, !tbaa !47
  %42 = getelementptr inbounds nuw %struct.doall_enc_ciphers, ptr %41, i32 0, i32 0
  %43 = load ptr, ptr %42, align 8, !tbaa !29
  %44 = load ptr, ptr %3, align 8, !tbaa !44
  %45 = getelementptr inbounds nuw %struct.obj_name_st, ptr %44, i32 0, i32 2
  %46 = load ptr, ptr %45, align 8, !tbaa !51
  %47 = call i32 (ptr, ptr, ...) @BIO_printf(ptr noundef %43, ptr noundef @.str.129, ptr noundef %46)
  %48 = load ptr, ptr %5, align 8, !tbaa !47
  %49 = getelementptr inbounds nuw %struct.doall_enc_ciphers, ptr %48, i32 0, i32 1
  %50 = load i32, ptr %49, align 8, !tbaa !31
  %51 = add nsw i32 %50, 1
  store i32 %51, ptr %49, align 8, !tbaa !31
  %52 = icmp eq i32 %51, 3
  br i1 %52, label %53, label %60

53:                                               ; preds = %40
  %54 = load ptr, ptr %5, align 8, !tbaa !47
  %55 = getelementptr inbounds nuw %struct.doall_enc_ciphers, ptr %54, i32 0, i32 0
  %56 = load ptr, ptr %55, align 8, !tbaa !29
  %57 = call i32 (ptr, ptr, ...) @BIO_printf(ptr noundef %56, ptr noundef @.str.91)
  %58 = load ptr, ptr %5, align 8, !tbaa !47
  %59 = getelementptr inbounds nuw %struct.doall_enc_ciphers, ptr %58, i32 0, i32 1
  store i32 0, ptr %59, align 8, !tbaa !31
  br label %65

60:                                               ; preds = %40
  %61 = load ptr, ptr %5, align 8, !tbaa !47
  %62 = getelementptr inbounds nuw %struct.doall_enc_ciphers, ptr %61, i32 0, i32 0
  %63 = load ptr, ptr %62, align 8, !tbaa !29
  %64 = call i32 (ptr, ptr, ...) @BIO_printf(ptr noundef %63, ptr noundef @.str.130)
  br label %65

65:                                               ; preds = %60, %53
  store i32 0, ptr %7, align 4
  br label %66

66:                                               ; preds = %65, %39, %22
  call void @llvm.lifetime.end.p0(i64 8, ptr %6) #8
  call void @llvm.lifetime.end.p0(i64 8, ptr %5) #8
  %67 = load i32, ptr %7, align 4
  switch i32 %67, label %69 [
    i32 0, label %68
    i32 1, label %68
  ]

68:                                               ; preds = %66, %66
  ret void

69:                                               ; preds = %66
  unreachable
}