; Function Attrs: nounwind uwtable
define internal void @show_ciphers(ptr noundef readonly captures(none) %0, ptr noundef captures(none) %1) #0 {
  %3 = tail call ptr @__ctype_b_loc() #13
  %4 = load ptr, ptr %3, align 8, !tbaa !32
  %5 = getelementptr inbounds nuw i8, ptr %0, i64 8
  %6 = load ptr, ptr %5, align 8, !tbaa !34
  %7 = load i8, ptr %6, align 1, !tbaa !24
  %8 = zext i8 %7 to i64
  %9 = getelementptr inbounds nuw i16, ptr %4, i64 %8
  %10 = load i16, ptr %9, align 2, !tbaa !36
  %11 = and i16 %10, 512
  %.not = icmp eq i16 %11, 0
  br i1 %.not, label %34, label %12

12:                                               ; preds = %2
  %13 = tail call ptr @EVP_get_cipherbyname(ptr noundef nonnull %6) #11
  %14 = icmp eq ptr %13, null
  br i1 %14, label %34, label %15

15:                                               ; preds = %12
  %16 = tail call i64 @EVP_CIPHER_get_flags(ptr noundef nonnull %13) #11
  %17 = and i64 %16, 2097152
  %.not12 = icmp eq i64 %17, 0
  br i1 %.not12, label %18, label %34

18:                                               ; preds = %15
  %19 = tail call i32 @EVP_CIPHER_get_mode(ptr noundef nonnull %13) #11
  %20 = icmp eq i32 %19, 65537
  br i1 %20, label %34, label %21

21:                                               ; preds = %18
  %22 = load ptr, ptr %1, align 8, !tbaa !21
  %23 = load ptr, ptr %5, align 8, !tbaa !34
  %24 = tail call i32 (ptr, ptr, ...) @BIO_printf(ptr noundef %22, ptr noundef nonnull @.str.129, ptr noundef %23) #11
  %25 = getelementptr inbounds nuw i8, ptr %1, i64 8
  %26 = load i32, ptr %25, align 8, !tbaa !23
  %27 = add nsw i32 %26, 1
  store i32 %27, ptr %25, align 8, !tbaa !23
  %28 = icmp eq i32 %27, 3
  %29 = load ptr, ptr %1, align 8, !tbaa !21
  br i1 %28, label %30, label %32

30:                                               ; preds = %21
  %31 = tail call i32 (ptr, ptr, ...) @BIO_printf(ptr noundef %29, ptr noundef nonnull @.str.91) #11
  store i32 0, ptr %25, align 8, !tbaa !23
  br label %34

32:                                               ; preds = %21
  %33 = tail call i32 (ptr, ptr, ...) @BIO_printf(ptr noundef %29, ptr noundef nonnull @.str.130) #11
  br label %34

34:                                               ; preds = %30, %32, %12, %15, %18, %2
  ret void
}